target datalayout = "e-m:e-p270:32:32-p271:32:32-p272:64:64-i64:64-i128:128-f80:128-n8:16:32:64-S128"
target triple = "x86_64-pc-linux-gnu"

%struct.ExternalSnapshotState = type { ptr, ptr, i8 }

@.str.1 = private unnamed_addr constant [19 x i8] c"../qemu/blockdev.c\00", align 1
@error_abort = external global ptr, align 8
@.str.213 = private unnamed_addr constant [9 x i8] c"ret == 0\00", align 1
@__PRETTY_FUNCTION__.external_snapshot_abort = private unnamed_addr constant [37 x i8] c"void external_snapshot_abort(void *)\00", align 1

; Function Attrs: nounwind sspstrong uwtable
define internal void @external_snapshot_abort(ptr noundef %0) #0 {
  %2 = alloca ptr, align 8
  %3 = alloca ptr, align 8
  %4 = alloca ptr, align 8
  %5 = alloca ptr, align 8
  %6 = alloca i32, align 4
  store ptr %0, ptr %2, align 8
  call void @llvm.lifetime.start.p0(i64 8, ptr %3) #16
  %7 = load ptr, ptr %2, align 8
  store ptr %7, ptr %3, align 8
  %8 = load ptr, ptr %3, align 8
  %9 = getelementptr inbounds nuw %struct.ExternalSnapshotState, ptr %8, i32 0, i32 1
  %10 = load ptr, ptr %9, align 8
  %11 = icmp ne ptr %10, null
  br i1 %11, label %12, label %65

12:                                               ; preds = %1
  %13 = load ptr, ptr %3, align 8
  %14 = getelementptr inbounds nuw %struct.ExternalSnapshotState, ptr %13, i32 0, i32 2
  %15 = load i8, ptr %14, align 8, !range !7, !noundef !8
  %16 = trunc i8 %15 to i1
  br i1 %16, label %17, label %64

17:                                               ; preds = %12
  call void @llvm.lifetime.start.p0(i64 8, ptr %4) #16
  store ptr null, ptr %4, align 8, !annotation !4
  call void @llvm.lifetime.start.p0(i64 8, ptr %5) #16
  store ptr null, ptr %5, align 8, !annotation !4
  call void @llvm.lifetime.start.p0(i64 4, ptr %6) #16
  store i32 0, ptr %6, align 4, !annotation !4
  %18 = load ptr, ptr %3, align 8
  %19 = getelementptr inbounds nuw %struct.ExternalSnapshotState, ptr %18, i32 0, i32 0
  %20 = load ptr, ptr %19, align 8
  %21 = call ptr @bdrv_get_aio_context(ptr noundef %20)
  store ptr %21, ptr %4, align 8
  %22 = load ptr, ptr %3, align 8
  %23 = getelementptr inbounds nuw %struct.ExternalSnapshotState, ptr %22, i32 0, i32 0
  %24 = load ptr, ptr %23, align 8
  call void @bdrv_ref(ptr noundef %24)
  %25 = load ptr, ptr %3, align 8
  %26 = getelementptr inbounds nuw %struct.ExternalSnapshotState, ptr %25, i32 0, i32 1
  %27 = load ptr, ptr %26, align 8
  %28 = call i32 @bdrv_set_backing_hd(ptr noundef %27, ptr noundef null, ptr noundef @error_abort)
  %29 = load ptr, ptr %3, align 8
  %30 = getelementptr inbounds nuw %struct.ExternalSnapshotState, ptr %29, i32 0, i32 0
  %31 = load ptr, ptr %30, align 8
  %32 = call ptr @bdrv_get_aio_context(ptr noundef %31)
  store ptr %32, ptr %5, align 8
  %33 = load ptr, ptr %4, align 8
  %34 = load ptr, ptr %5, align 8
  %35 = icmp ne ptr %33, %34
  br i1 %35, label %36, label %47

36:                                               ; preds = %17
  %37 = load ptr, ptr %3, align 8
  %38 = getelementptr inbounds nuw %struct.ExternalSnapshotState, ptr %37, i32 0, i32 0
  %39 = load ptr, ptr %38, align 8
  %40 = load ptr, ptr %4, align 8
  %41 = call i32 @bdrv_try_change_aio_context(ptr noundef %39, ptr noundef %40, ptr noundef null, ptr noundef null)
  store i32 %41, ptr %6, align 4
  %42 = load i32, ptr %6, align 4
  %43 = icmp eq i32 %42, 0
  br i1 %43, label %44, label %45

44:                                               ; preds = %36
  br label %46

45:                                               ; preds = %36
  call void @__assert_fail(ptr noundef @.str.213, ptr noundef @.str.1, i32 noundef 1559, ptr noundef @__PRETTY_FUNCTION__.external_snapshot_abort) #15
  unreachable

46:                                               ; preds = %44
  br label %47

47:                                               ; preds = %46, %17
  %48 = load ptr, ptr %3, align 8
  %49 = getelementptr inbounds nuw %struct.ExternalSnapshotState, ptr %48, i32 0, i32 1
  %50 = load ptr, ptr %49, align 8
  call void @bdrv_drained_begin(ptr noundef %50)
  call void @bdrv_graph_wrlock()
  %51 = load ptr, ptr %3, align 8
  %52 = getelementptr inbounds nuw %struct.ExternalSnapshotState, ptr %51, i32 0, i32 1
  %53 = load ptr, ptr %52, align 8
  %54 = load ptr, ptr %3, align 8
  %55 = getelementptr inbounds nuw %struct.ExternalSnapshotState, ptr %54, i32 0, i32 0
  %56 = load ptr, ptr %55, align 8
  %57 = call i32 @bdrv_replace_node(ptr noundef %53, ptr noundef %56, ptr noundef @error_abort)
  call void @bdrv_graph_wrunlock()
  %58 = load ptr, ptr %3, align 8
  %59 = getelementptr inbounds nuw %struct.ExternalSnapshotState, ptr %58, i32 0, i32 1
  %60 = load ptr, ptr %59, align 8
  call void @bdrv_drained_end(ptr noundef %60)
  %61 = load ptr, ptr %3, align 8
  %62 = getelementptr inbounds nuw %struct.ExternalSnapshotState, ptr %61, i32 0, i32 0
  %63 = load ptr, ptr %62, align 8
  call void @bdrv_unref(ptr noundef %63)
  call void @llvm.lifetime.end.p0(i64 4, ptr %6) #16
  call void @llvm.lifetime.end.p0(i64 8, ptr %5) #16
  call void @llvm.lifetime.end.p0(i64 8, ptr %4) #16
  br label %64

64:                                               ; preds = %47, %12
  br label %65

65:                                               ; preds = %64, %1
  call void @llvm.lifetime.end.p0(i64 8, ptr %3) #16
  ret void
}