; Function Attrs: nounwind sspstrong uwtable
define internal void @external_snapshot_abort(ptr noundef readonly captures(none) %0) #0 {
  %2 = getelementptr inbounds nuw i8, ptr %0, i64 8
  %3 = load ptr, ptr %2, align 8
  %.not = icmp eq ptr %3, null
  br i1 %.not, label %28, label %4

4:                                                ; preds = %1
  %5 = getelementptr inbounds nuw i8, ptr %0, i64 16
  %6 = load i8, ptr %5, align 8, !range !6, !noundef !7
  %7 = trunc nuw i8 %6 to i1
  br i1 %7, label %8, label %28

8:                                                ; preds = %4
  %9 = load ptr, ptr %0, align 8
  %10 = tail call ptr @bdrv_get_aio_context(ptr noundef %9) #14
  %11 = load ptr, ptr %0, align 8
  tail call void @bdrv_ref(ptr noundef %11) #14
  %12 = load ptr, ptr %2, align 8
  %13 = tail call i32 @bdrv_set_backing_hd(ptr noundef %12, ptr noundef null, ptr noundef nonnull @error_abort) #14
  %14 = load ptr, ptr %0, align 8
  %15 = tail call ptr @bdrv_get_aio_context(ptr noundef %14) #14
  %.not16 = icmp eq ptr %10, %15
  br i1 %.not16, label %21, label %16

16:                                               ; preds = %8
  %17 = load ptr, ptr %0, align 8
  %18 = tail call i32 @bdrv_try_change_aio_context(ptr noundef %17, ptr noundef %10, ptr noundef null, ptr noundef null) #14
  %19 = icmp eq i32 %18, 0
  br i1 %19, label %21, label %20

20:                                               ; preds = %16
  tail call void @__assert_fail(ptr noundef nonnull @.str.213, ptr noundef nonnull @.str.1, i32 noundef 1559, ptr noundef nonnull @__PRETTY_FUNCTION__.external_snapshot_abort) #15
  unreachable

21:                                               ; preds = %16, %8
  %22 = load ptr, ptr %2, align 8
  tail call void @bdrv_drained_begin(ptr noundef %22) #14
  tail call void @bdrv_graph_wrlock() #14
  %23 = load ptr, ptr %2, align 8
  %24 = load ptr, ptr %0, align 8
  %25 = tail call i32 @bdrv_replace_node(ptr noundef %23, ptr noundef %24, ptr noundef nonnull @error_abort) #14
  tail call void @bdrv_graph_wrunlock() #14
  %26 = load ptr, ptr %2, align 8
  tail call void @bdrv_drained_end(ptr noundef %26) #14
  %27 = load ptr, ptr %0, align 8
  tail call void @bdrv_unref(ptr noundef %27) #14
  br label %28

28:                                               ; preds = %4, %21, %1
  ret void
}